target datalayout = "e-m:e-p270:32:32-p271:32:32-p272:64:64-i64:64-i128:128-f80:128-n8:16:32:64-S128"
target triple = "x86_64-pc-linux-gnu"

%class.ThreadsList = type { i32, i32, ptr, ptr, i64 }

@_ZN11ThreadsListC1Ei = hidden unnamed_addr alias void (ptr, i32), ptr @_ZN11ThreadsListC2Ei

; Function Attrs: mustprogress nounwind uwtable
define linkonce_odr hidden void @_ZN4Copy17pd_disjoint_wordsEPKP12HeapWordImplPS1_m(ptr noundef %0, ptr noundef %1, i64 noundef %2) #1 comdat align 2 {
  %4 = alloca ptr, align 8
  %5 = alloca ptr, align 8
  %6 = alloca i64, align 8
  store ptr %0, ptr %4, align 8
  store ptr %1, ptr %5, align 8
  store i64 %2, ptr %6, align 8
  %7 = load i64, ptr %6, align 8
  switch i64 %7, label %57 [
    i64 8, label %8
    i64 7, label %14
    i64 6, label %20
    i64 5, label %26
    i64 4, label %32
    i64 3, label %38
    i64 2, label %44
    i64 1, label %50
    i64 0, label %56
  ]

8:                                                ; preds = %3
  %9 = load ptr, ptr %4, align 8
  %10 = getelementptr inbounds ptr, ptr %9, i64 7
  %11 = load ptr, ptr %10, align 8
  %12 = load ptr, ptr %5, align 8
  %13 = getelementptr inbounds ptr, ptr %12, i64 7
  store ptr %11, ptr %13, align 8
  br label %14

14:                                               ; preds = %8, %3
  %15 = load ptr, ptr %4, align 8
  %16 = getelementptr inbounds ptr, ptr %15, i64 6
  %17 = load ptr, ptr %16, align 8
  %18 = load ptr, ptr %5, align 8
  %19 = getelementptr inbounds ptr, ptr %18, i64 6
  store ptr %17, ptr %19, align 8
  br label %20

20:                                               ; preds = %14, %3
  %21 = load ptr, ptr %4, align 8
  %22 = getelementptr inbounds ptr, ptr %21, i64 5
  %23 = load ptr, ptr %22, align 8
  %24 = load ptr, ptr %5, align 8
  %25 = getelementptr inbounds ptr, ptr %24, i64 5
  store ptr %23, ptr %25, align 8
  br label %26

26:                                               ; preds = %20, %3
  %27 = load ptr, ptr %4, align 8
  %28 = getelementptr inbounds ptr, ptr %27, i64 4
  %29 = load ptr, ptr %28, align 8
  %30 = load ptr, ptr %5, align 8
  %31 = getelementptr inbounds ptr, ptr %30, i64 4
  store ptr %29, ptr %31, align 8
  br label %32

32:                                               ; preds = %26, %3
  %33 = load ptr, ptr %4, align 8
  %34 = getelementptr inbounds ptr, ptr %33, i64 3
  %35 = load ptr, ptr %34, align 8
  %36 = load ptr, ptr %5, align 8
  %37 = getelementptr inbounds ptr, ptr %36, i64 3
  store ptr %35, ptr %37, align 8
  br label %38

38:                                               ; preds = %32, %3
  %39 = load ptr, ptr %4, align 8
  %40 = getelementptr inbounds ptr, ptr %39, i64 2
  %41 = load ptr, ptr %40, align 8
  %42 = load ptr, ptr %5, align 8
  %43 = getelementptr inbounds ptr, ptr %42, i64 2
  store ptr %41, ptr %43, align 8
  br label %44

44:                                               ; preds = %38, %3
  %45 = load ptr, ptr %4, align 8
  %46 = getelementptr inbounds ptr, ptr %45, i64 1
  %47 = load ptr, ptr %46, align 8
  %48 = load ptr, ptr %5, align 8
  %49 = getelementptr inbounds ptr, ptr %48, i64 1
  store ptr %47, ptr %49, align 8
  br label %50

50:                                               ; preds = %44, %3
  %51 = load ptr, ptr %4, align 8
  %52 = getelementptr inbounds ptr, ptr %51, i64 0
  %53 = load ptr, ptr %52, align 8
  %54 = load ptr, ptr %5, align 8
  %55 = getelementptr inbounds ptr, ptr %54, i64 0
  store ptr %53, ptr %55, align 8
  br label %56

56:                                               ; preds = %50, %3
  br label %62

57:                                               ; preds = %3
  %58 = load ptr, ptr %5, align 8
  %59 = load ptr, ptr %4, align 8
  %60 = load i64, ptr %6, align 8
  %61 = mul i64 %60, 8
  call void @llvm.memcpy.p0.p0.i64(ptr align 8 %58, ptr align 8 %59, i64 %61, i1 false)
  br label %62

62:                                               ; preds = %57, %56
  ret void
}

; Function Attrs: mustprogress nounwind uwtable
define linkonce_odr hidden void @_ZN4Copy15assert_disjointEPKP12HeapWordImplPS1_m(ptr noundef %0, ptr noundef %1, i64 noundef %2) #1 comdat align 2 {
  %4 = alloca ptr, align 8
  %5 = alloca ptr, align 8
  %6 = alloca i64, align 8
  store ptr %0, ptr %4, align 8
  store ptr %1, ptr %5, align 8
  store i64 %2, ptr %6, align 8
  ret void
}

; Function Attrs: mustprogress nounwind uwtable
define linkonce_odr hidden void @_ZN4Copy16assert_params_okEPKvPvl(ptr noundef %0, ptr noundef %1, i64 noundef %2) #1 comdat align 2 {
  %4 = alloca ptr, align 8
  %5 = alloca ptr, align 8
  %6 = alloca i64, align 8
  store ptr %0, ptr %4, align 8
  store ptr %1, ptr %5, align 8
  store i64 %2, ptr %6, align 8
  ret void
}

; Function Attrs: mustprogress nounwind uwtable
define linkonce_odr hidden void @_ZN4Copy14disjoint_wordsEPKP12HeapWordImplPS1_m(ptr noundef %0, ptr noundef %1, i64 noundef %2) #1 comdat align 2 {
  %4 = alloca ptr, align 8
  %5 = alloca ptr, align 8
  %6 = alloca i64, align 8
  store ptr %0, ptr %4, align 8
  store ptr %1, ptr %5, align 8
  store i64 %2, ptr %6, align 8
  %7 = load ptr, ptr %4, align 8
  %8 = load ptr, ptr %5, align 8
  call void @_ZN4Copy16assert_params_okEPKvPvl(ptr noundef %7, ptr noundef %8, i64 noundef 8)
  %9 = load ptr, ptr %4, align 8
  %10 = load ptr, ptr %5, align 8
  %11 = load i64, ptr %6, align 8
  call void @_ZN4Copy15assert_disjointEPKP12HeapWordImplPS1_m(ptr noundef %9, ptr noundef %10, i64 noundef %11)
  %12 = load ptr, ptr %4, align 8
  %13 = load ptr, ptr %5, align 8
  %14 = load i64, ptr %6, align 8
  call void @_ZN4Copy17pd_disjoint_wordsEPKP12HeapWordImplPS1_m(ptr noundef %12, ptr noundef %13, i64 noundef %14)
  ret void
}

; Function Attrs: mustprogress nounwind uwtable
define hidden noundef ptr @_ZN11ThreadsList10add_threadEPS_P10JavaThread(ptr noundef %0, ptr noundef %1) #1 align 2 {
  %3 = alloca i64, align 8
  %4 = alloca i8, align 1
  %5 = alloca i64, align 8
  %6 = alloca ptr, align 8
  %7 = alloca ptr, align 8
  %8 = alloca i32, align 4
  %9 = alloca i32, align 4
  %10 = alloca i32, align 4
  %11 = alloca ptr, align 8
  store ptr %0, ptr %6, align 8
  store ptr %1, ptr %7, align 8
  %12 = load ptr, ptr %6, align 8
  %13 = getelementptr inbounds %class.ThreadsList, ptr %12, i32 0, i32 1
  %14 = load i32, ptr %13, align 4
  store i32 %14, ptr %8, align 4
  %15 = load i32, ptr %8, align 4
  %16 = add i32 %15, 1
  store i32 %16, ptr %9, align 4
  %17 = load i32, ptr %8, align 4
  store i32 %17, ptr %10, align 4
  store i64 32, ptr %5, align 8
  %18 = load i64, ptr %5, align 8
  store i64 %18, ptr %3, align 8
  store i8 2, ptr %4, align 1
  %19 = load i64, ptr %3, align 8
  %20 = load i8, ptr %4, align 1
  %21 = call noundef ptr @_Z12AllocateHeapm8MEMFLAGSN17AllocFailStrategy13AllocFailEnumE(i64 noundef %19, i8 noundef zeroext %20, i32 noundef 0) #2
  %22 = load i32, ptr %9, align 4
  call void @_ZN11ThreadsListC1Ei(ptr noundef nonnull align 8 dereferenceable(32) %21, i32 noundef %22)
  store ptr %21, ptr %11, align 8
  %23 = load i32, ptr %10, align 4
  %24 = icmp ugt i32 %23, 0
  br i1 %24, label %25, label %34

25:                                               ; preds = %2
  %26 = load ptr, ptr %6, align 8
  %27 = getelementptr inbounds %class.ThreadsList, ptr %26, i32 0, i32 3
  %28 = load ptr, ptr %27, align 8
  %29 = load ptr, ptr %11, align 8
  %30 = getelementptr inbounds %class.ThreadsList, ptr %29, i32 0, i32 3
  %31 = load ptr, ptr %30, align 8
  %32 = load i32, ptr %10, align 4
  %33 = zext i32 %32 to i64
  call void @_ZN4Copy14disjoint_wordsEPKP12HeapWordImplPS1_m(ptr noundef %28, ptr noundef %31, i64 noundef %33)
  br label %34

34:                                               ; preds = %25, %2
  %35 = load ptr, ptr %7, align 8
  %36 = load ptr, ptr %11, align 8
  %37 = getelementptr inbounds %class.ThreadsList, ptr %36, i32 0, i32 3
  %38 = load ptr, ptr %37, align 8
  %39 = load i32, ptr %8, align 4
  %40 = zext i32 %39 to i64
  %41 = getelementptr inbounds ptr, ptr %38, i64 %40
  store ptr %35, ptr %41, align 8
  %42 = load ptr, ptr %11, align 8
  ret ptr %42
}