; Function Attrs: mustprogress nounwind uwtable
define hidden noundef ptr @_ZN11ThreadsList10add_threadEPS_P10JavaThread(ptr nocapture noundef readonly %0, ptr noundef %1) local_unnamed_addr #1 align 2 {
  %3 = getelementptr inbounds i8, ptr %0, i64 4
  %4 = load i32, ptr %3, align 4
  %5 = add i32 %4, 1
  %6 = tail call noundef ptr @_Z12AllocateHeapm8MEMFLAGSN17AllocFailStrategy13AllocFailEnumE(i64 noundef 32, i8 noundef zeroext 2, i32 noundef 0) #15
  store i32 1414288212, ptr %6, align 8
  %7 = getelementptr inbounds i8, ptr %6, i64 4
  store i32 %5, ptr %7, align 4
  %8 = getelementptr inbounds i8, ptr %6, i64 8
  store ptr null, ptr %8, align 8
  %9 = icmp eq i32 %5, 0
  br i1 %9, label %.thread, label %_ZN11ThreadsListC2Ei.exit

.thread:                                          ; preds = %2
  %10 = getelementptr inbounds i8, ptr %6, i64 16
  store ptr @_ZL23empty_threads_list_data, ptr %10, align 8
  %11 = getelementptr inbounds i8, ptr %6, i64 24
  store volatile i64 0, ptr %11, align 8
  %12 = getelementptr inbounds i8, ptr %0, i64 16
  %13 = load ptr, ptr %12, align 8
  br label %56

_ZN11ThreadsListC2Ei.exit:                        ; preds = %2
  %14 = add i32 %4, 2
  %15 = sext i32 %14 to i64
  %16 = shl nsw i64 %15, 3
  %17 = tail call noundef ptr @_Z12AllocateHeapm8MEMFLAGSN17AllocFailStrategy13AllocFailEnumE(i64 noundef %16, i8 noundef zeroext 2, i32 noundef 0) #15
  %18 = sext i32 %5 to i64
  %19 = getelementptr inbounds ptr, ptr %17, i64 %18
  store ptr null, ptr %19, align 8
  %20 = getelementptr inbounds i8, ptr %6, i64 16
  store ptr %17, ptr %20, align 8
  %21 = getelementptr inbounds i8, ptr %6, i64 24
  store volatile i64 0, ptr %21, align 8
  %.not = icmp eq i32 %4, 0
  br i1 %.not, label %_ZN4Copy14disjoint_wordsEPKP12HeapWordImplPS1_m.exit, label %22

22:                                               ; preds = %_ZN11ThreadsListC2Ei.exit
  %23 = getelementptr inbounds i8, ptr %0, i64 16
  %24 = load ptr, ptr %23, align 8
  %25 = zext i32 %4 to i64
  switch i32 %4, label %56 [
    i32 8, label %26
    i32 7, label %30
    i32 6, label %34
    i32 5, label %38
    i32 4, label %42
    i32 3, label %46
    i32 2, label %50
    i32 1, label %54
  ]

26:                                               ; preds = %22
  %27 = getelementptr inbounds i8, ptr %24, i64 56
  %28 = load ptr, ptr %27, align 8
  %29 = getelementptr inbounds i8, ptr %17, i64 56
  store ptr %28, ptr %29, align 8
  br label %30

30:                                               ; preds = %26, %22
  %31 = getelementptr inbounds i8, ptr %24, i64 48
  %32 = load ptr, ptr %31, align 8
  %33 = getelementptr inbounds i8, ptr %17, i64 48
  store ptr %32, ptr %33, align 8
  br label %34

34:                                               ; preds = %30, %22
  %35 = getelementptr inbounds i8, ptr %24, i64 40
  %36 = load ptr, ptr %35, align 8
  %37 = getelementptr inbounds i8, ptr %17, i64 40
  store ptr %36, ptr %37, align 8
  br label %38

38:                                               ; preds = %34, %22
  %39 = getelementptr inbounds i8, ptr %24, i64 32
  %40 = load ptr, ptr %39, align 8
  %41 = getelementptr inbounds i8, ptr %17, i64 32
  store ptr %40, ptr %41, align 8
  br label %42

42:                                               ; preds = %38, %22
  %43 = getelementptr inbounds i8, ptr %24, i64 24
  %44 = load ptr, ptr %43, align 8
  %45 = getelementptr inbounds i8, ptr %17, i64 24
  store ptr %44, ptr %45, align 8
  br label %46

46:                                               ; preds = %42, %22
  %47 = getelementptr inbounds i8, ptr %24, i64 16
  %48 = load ptr, ptr %47, align 8
  %49 = getelementptr inbounds i8, ptr %17, i64 16
  store ptr %48, ptr %49, align 8
  br label %50

50:                                               ; preds = %46, %22
  %51 = getelementptr inbounds i8, ptr %24, i64 8
  %52 = load ptr, ptr %51, align 8
  %53 = getelementptr inbounds i8, ptr %17, i64 8
  store ptr %52, ptr %53, align 8
  br label %54

54:                                               ; preds = %50, %22
  %55 = load ptr, ptr %24, align 8
  store ptr %55, ptr %17, align 8
  br label %_ZN4Copy14disjoint_wordsEPKP12HeapWordImplPS1_m.exit

56:                                               ; preds = %.thread, %22
  %57 = phi i64 [ 4294967295, %.thread ], [ %25, %22 ]
  %58 = phi ptr [ %13, %.thread ], [ %24, %22 ]
  %.0.i.i1618 = phi ptr [ @_ZL23empty_threads_list_data, %.thread ], [ %17, %22 ]
  %59 = phi ptr [ %10, %.thread ], [ %20, %22 ]
  %60 = shl nuw nsw i64 %57, 3
  tail call void @llvm.memcpy.p0.p0.i64(ptr nonnull align 8 %.0.i.i1618, ptr align 8 %58, i64 %60, i1 false)
  br label %_ZN4Copy14disjoint_wordsEPKP12HeapWordImplPS1_m.exit

_ZN4Copy14disjoint_wordsEPKP12HeapWordImplPS1_m.exit: ; preds = %56, %54, %_ZN11ThreadsListC2Ei.exit
  %61 = phi ptr [ %20, %_ZN11ThreadsListC2Ei.exit ], [ %20, %54 ], [ %59, %56 ]
  %62 = load ptr, ptr %61, align 8
  %63 = zext i32 %4 to i64
  %64 = getelementptr inbounds ptr, ptr %62, i64 %63
  store ptr %1, ptr %64, align 8
  ret ptr %6
}